target datalayout = "e-m:e-p270:32:32-p271:32:32-p272:64:64-i64:64-i128:128-f80:128-n8:16:32:64-S128"
target triple = "x86_64-pc-linux-gnu"

%struct.nghttp2_stream = type { i32, %struct.nghttp2_pq_entry, i64, i64, i64, i64, ptr, ptr, ptr, i64, i32, i32, i32, i32, i32, i32, i32, i16, i32, i8, i8, i8, i8, i8, i8 }
%struct.nghttp2_pq_entry = type { i64 }
%struct.nghttp2_session = type { %struct.nghttp2_map, %struct.nghttp2_outbound_queue, %struct.nghttp2_outbound_queue, %struct.nghttp2_outbound_queue, [8 x %struct.anon], %struct.nghttp2_active_outbound_item, %struct.nghttp2_inbound_frame, %struct.nghttp2_hd_deflater, %struct.nghttp2_hd_inflater, %struct.nghttp2_session_callbacks, %struct.nghttp2_mem, ptr, ptr, %struct.nghttp2_ratelim, i64, i64, i64, i64, i64, i64, i64, i64, i64, i64, i64, i64, i64, i64, i32, i32, i32, i32, i32, i32, i32, i32, i32, i32, i32, i32, i8, %struct.nghttp2_settings_storage, %struct.nghttp2_settings_storage, i32, i32, i32, i8, i8, i8, i8, i8, i8, [32 x i8] }
%struct.nghttp2_map = type { ptr, ptr, i64, i64 }
%struct.nghttp2_outbound_queue = type { ptr, ptr, i64 }
%struct.anon = type { %struct.nghttp2_pq }
%struct.nghttp2_pq = type { ptr, ptr, i64, i64, ptr }
%struct.nghttp2_active_outbound_item = type { ptr, %struct.nghttp2_bufs, i32 }
%struct.nghttp2_bufs = type { ptr, ptr, ptr, i64, i64, i64, i64, i64 }
%struct.nghttp2_inbound_frame = type { %union.nghttp2_frame, %union.nghttp2_ext_frame_payload, ptr, %struct.nghttp2_buf, %struct.nghttp2_buf, ptr, i64, i64, i64, i64, i32, [32 x i8] }
%union.nghttp2_frame = type { %struct.nghttp2_headers }
%struct.nghttp2_headers = type { %struct.nghttp2_frame_hd, i64, %struct.nghttp2_priority_spec, ptr, i64, i32 }
%struct.nghttp2_frame_hd = type { i64, i32, i8, i8, i8 }
%struct.nghttp2_priority_spec = type { i32, i32, i8 }
%union.nghttp2_ext_frame_payload = type { %struct.nghttp2_ext_altsvc }
%struct.nghttp2_ext_altsvc = type { ptr, i64, ptr, i64 }
%struct.nghttp2_buf = type { ptr, ptr, ptr, ptr, ptr }
%struct.nghttp2_hd_deflater = type { %struct.nghttp2_hd_context, %struct.nghttp2_hd_map, i64, i64, i8 }
%struct.nghttp2_hd_context = type { %struct.nghttp2_hd_ringbuf, ptr, i64, i64, i32, i8 }
%struct.nghttp2_hd_ringbuf = type { ptr, i64, i64, i64 }
%struct.nghttp2_hd_map = type { [128 x ptr] }
%struct.nghttp2_hd_inflater = type { %struct.nghttp2_hd_context, %struct.nghttp2_hd_huff_decode_context, %struct.nghttp2_buf, %struct.nghttp2_buf, ptr, ptr, ptr, ptr, i64, i64, i64, i64, i64, i32, i32, i8, i8, i8 }
%struct.nghttp2_hd_huff_decode_context = type { i16 }
%struct.nghttp2_session_callbacks = type { ptr, ptr, ptr, ptr, ptr, ptr, ptr, ptr, ptr, ptr, ptr, ptr, ptr, ptr, ptr, ptr, ptr, ptr, ptr, ptr, ptr, ptr, ptr, ptr, ptr, ptr, ptr, ptr }
%struct.nghttp2_mem = type { ptr, ptr, ptr, ptr, ptr }
%struct.nghttp2_ratelim = type { i64, i64, i64, i64 }
%struct.nghttp2_settings_storage = type { i32, i32, i32, i32, i32, i32, i32, i32 }

@.str.1 = private unnamed_addr constant [115 x i8] c"generated/home/dtcxzyw/WorkSpace/Projects/compilers/llvm-opt-benchmark/bench/nghttp2/nghttp2/lib/nghttp2_session.c\00", align 1
@.str.70 = private unnamed_addr constant [40 x i8] c"urgency < NGHTTP2_EXTPRI_URGENCY_LEVELS\00", align 1
@.str.71 = private unnamed_addr constant [20 x i8] c"stream->queued == 1\00", align 1
@__PRETTY_FUNCTION__.session_ob_data_remove = private unnamed_addr constant [65 x i8] c"void session_ob_data_remove(nghttp2_session *, nghttp2_stream *)\00", align 1

; Function Attrs: nounwind uwtable
define internal void @session_ob_data_remove(ptr noundef %0, ptr noundef %1) #0 {
  %3 = alloca ptr, align 8
  %4 = alloca ptr, align 8
  %5 = alloca i32, align 4
  store ptr %0, ptr %3, align 8, !tbaa !7
  store ptr %1, ptr %4, align 8, !tbaa !43
  call void @llvm.lifetime.start.p0(i64 4, ptr %5) #10
  %6 = load ptr, ptr %4, align 8, !tbaa !43
  %7 = getelementptr inbounds nuw %struct.nghttp2_stream, ptr %6, i32 0, i32 21
  %8 = load i8, ptr %7, align 2, !tbaa !144
  %9 = zext i8 %8 to i32
  %10 = icmp eq i32 %9, 1
  br i1 %10, label %11, label %12

11:                                               ; preds = %2
  br label %13

12:                                               ; preds = %2
  call void @__assert_fail(ptr noundef @.str.71, ptr noundef @.str.1, i32 noundef 858, ptr noundef @__PRETTY_FUNCTION__.session_ob_data_remove) #12
  unreachable

13:                                               ; preds = %11
  %14 = load ptr, ptr %4, align 8, !tbaa !43
  %15 = getelementptr inbounds nuw %struct.nghttp2_stream, ptr %14, i32 0, i32 23
  %16 = load i8, ptr %15, align 8, !tbaa !146
  %17 = zext i8 %16 to i32
  %18 = and i32 %17, -129
  store i32 %18, ptr %5, align 4, !tbaa !3
  %19 = load i32, ptr %5, align 4, !tbaa !3
  %20 = icmp ult i32 %19, 8
  br i1 %20, label %21, label %22

21:                                               ; preds = %13
  br label %23

22:                                               ; preds = %13
  call void @__assert_fail(ptr noundef @.str.70, ptr noundef @.str.1, i32 noundef 862, ptr noundef @__PRETTY_FUNCTION__.session_ob_data_remove) #12
  unreachable

23:                                               ; preds = %21
  %24 = load ptr, ptr %3, align 8, !tbaa !7
  %25 = getelementptr inbounds nuw %struct.nghttp2_session, ptr %24, i32 0, i32 4
  %26 = load i32, ptr %5, align 4, !tbaa !3
  %27 = zext i32 %26 to i64
  %28 = getelementptr inbounds nuw [8 x %struct.anon], ptr %25, i64 0, i64 %27
  %29 = getelementptr inbounds nuw %struct.anon, ptr %28, i32 0, i32 0
  %30 = load ptr, ptr %4, align 8, !tbaa !43
  %31 = getelementptr inbounds nuw %struct.nghttp2_stream, ptr %30, i32 0, i32 1
  call void @nghttp2_pq_remove(ptr noundef %29, ptr noundef %31)
  %32 = load ptr, ptr %4, align 8, !tbaa !43
  %33 = getelementptr inbounds nuw %struct.nghttp2_stream, ptr %32, i32 0, i32 21
  store i8 0, ptr %33, align 2, !tbaa !144
  call void @llvm.lifetime.end.p0(i64 4, ptr %5) #10
  ret void
}

; Function Attrs: nounwind uwtable
define hidden void @nghttp2_session_destroy_stream(ptr noundef %0, ptr noundef %1) #0 {
  %3 = alloca ptr, align 8
  %4 = alloca ptr, align 8
  %5 = alloca ptr, align 8
  store ptr %0, ptr %3, align 8, !tbaa !7
  store ptr %1, ptr %4, align 8, !tbaa !43
  call void @llvm.lifetime.start.p0(i64 8, ptr %5) #10
  br label %6

6:                                                ; preds = %2
  br label %7

7:                                                ; preds = %6
  br label %8

8:                                                ; preds = %7
  %9 = load ptr, ptr %3, align 8, !tbaa !7
  %10 = getelementptr inbounds nuw %struct.nghttp2_session, ptr %9, i32 0, i32 10
  store ptr %10, ptr %5, align 8, !tbaa !53
  %11 = load ptr, ptr %4, align 8, !tbaa !43
  %12 = getelementptr inbounds nuw %struct.nghttp2_stream, ptr %11, i32 0, i32 21
  %13 = load i8, ptr %12, align 2, !tbaa !144
  %14 = icmp ne i8 %13, 0
  br i1 %14, label %15, label %18

15:                                               ; preds = %8
  %16 = load ptr, ptr %3, align 8, !tbaa !7
  %17 = load ptr, ptr %4, align 8, !tbaa !43
  call void @session_ob_data_remove(ptr noundef %16, ptr noundef %17)
  br label %18

18:                                               ; preds = %15, %8
  %19 = load ptr, ptr %3, align 8, !tbaa !7
  %20 = getelementptr inbounds nuw %struct.nghttp2_session, ptr %19, i32 0, i32 0
  %21 = load ptr, ptr %4, align 8, !tbaa !43
  %22 = getelementptr inbounds nuw %struct.nghttp2_stream, ptr %21, i32 0, i32 10
  %23 = load i32, ptr %22, align 8, !tbaa !145
  %24 = call i32 @nghttp2_map_remove(ptr noundef %20, i32 noundef %23)
  %25 = load ptr, ptr %4, align 8, !tbaa !43
  call void @nghttp2_stream_free(ptr noundef %25)
  %26 = load ptr, ptr %5, align 8, !tbaa !53
  %27 = load ptr, ptr %4, align 8, !tbaa !43
  call void @nghttp2_mem_free(ptr noundef %26, ptr noundef %27)
  call void @llvm.lifetime.end.p0(i64 8, ptr %5) #10
  ret void
}