; Function Attrs: nounwind uwtable
define hidden void @nghttp2_session_destroy_stream(ptr noundef %0, ptr noundef %1) local_unnamed_addr #1 {
  %3 = getelementptr inbounds nuw i8, ptr %1, i64 118
  %4 = load i8, ptr %3, align 2, !tbaa !137
  switch i8 %4, label %5 [
    i8 0, label %16
    i8 1, label %6
  ]

5:                                                ; preds = %2
  tail call void @__assert_fail(ptr noundef nonnull @.str.71, ptr noundef nonnull @.str.1, i32 noundef 858, ptr noundef nonnull @__PRETTY_FUNCTION__.session_ob_data_remove) #17
  unreachable

6:                                                ; preds = %2
  %7 = getelementptr inbounds nuw i8, ptr %1, i64 120
  %8 = load i8, ptr %7, align 8, !tbaa !138
  %9 = and i8 %8, 127
  %10 = icmp samesign ult i8 %9, 8
  br i1 %10, label %session_ob_data_remove.exit, label %11

11:                                               ; preds = %6
  tail call void @__assert_fail(ptr noundef nonnull @.str.70, ptr noundef nonnull @.str.1, i32 noundef 862, ptr noundef nonnull @__PRETTY_FUNCTION__.session_ob_data_remove) #17
  unreachable

session_ob_data_remove.exit:                      ; preds = %6
  %12 = getelementptr inbounds nuw i8, ptr %0, i64 104
  %13 = zext nneg i8 %9 to i64
  %14 = getelementptr inbounds nuw [8 x %struct.anon], ptr %12, i64 0, i64 %13
  %15 = getelementptr inbounds nuw i8, ptr %1, i64 8
  tail call void @nghttp2_pq_remove(ptr noundef nonnull %14, ptr noundef nonnull %15) #16
  store i8 0, ptr %3, align 2, !tbaa !137
  br label %16

16:                                               ; preds = %2, %session_ob_data_remove.exit
  %17 = getelementptr inbounds nuw i8, ptr %0, i64 2344
  %18 = getelementptr inbounds nuw i8, ptr %1, i64 80
  %19 = load i32, ptr %18, align 8, !tbaa !140
  %20 = tail call i32 @nghttp2_map_remove(ptr noundef %0, i32 noundef %19) #16
  tail call void @nghttp2_stream_free(ptr noundef nonnull %1) #16
  tail call void @nghttp2_mem_free(ptr noundef nonnull %17, ptr noundef nonnull %1) #16
  ret void
}